; Function Attrs: mustprogress nounwind uwtable
define internal noundef zeroext i1 @_ZN12_GLOBAL__N_122ClangAsmParserCallback20LookupInlineAsmFieldEN4llvm9StringRefES2_Rj(ptr nocapture noundef nonnull readonly align 8 dereferenceable(72) %0, ptr %1, i64 %2, ptr %3, i64 %4, ptr noundef nonnull align 4 dereferenceable(4) %5) unnamed_addr #0 align 2 {
  %7 = getelementptr inbounds nuw i8, ptr %0, i64 8
  %8 = load ptr, ptr %7, align 8
  %9 = getelementptr inbounds nuw i8, ptr %8, i64 88
  %10 = load ptr, ptr %9, align 8
  %11 = getelementptr inbounds nuw i8, ptr %0, i64 16
  %.sroa.0.0.copyload = load i32, ptr %11, align 8
  %12 = tail call noundef zeroext i1 @_ZN5clang4Sema20LookupInlineAsmFieldEN4llvm9StringRefES2_RjNS_14SourceLocationE(ptr noundef nonnull align 8 dereferenceable(17560) %10, ptr %1, i64 %2, ptr %3, i64 %4, ptr noundef nonnull align 4 dereferenceable(4) %5, i32 %.sroa.0.0.copyload) #14
  ret i1 %12
}